target datalayout = "e-m:e-p270:32:32-p271:32:32-p272:64:64-i64:64-i128:128-f80:128-n8:16:32:64-S128"
target triple = "x86_64-pc-linux-gnu"

@.str = private unnamed_addr constant [124 x i8] c"generated/home/dtcxzyw/WorkSpace/Projects/compilers/llvm-opt-benchmark/bench/libquic/libquic/boringssl/crypto/rsa/padding.c\00", align 1

; Function Attrs: nounwind uwtable
define hidden i32 @RSA_padding_check_PKCS1_type_1(ptr noundef %0, i32 noundef %1, ptr noundef %2, i32 noundef %3) #0 {
  %5 = alloca i32, align 4
  %6 = alloca ptr, align 8
  %7 = alloca i32, align 4
  %8 = alloca ptr, align 8
  %9 = alloca i32, align 4
  %10 = alloca i32, align 4
  %11 = alloca i32, align 4
  %12 = alloca ptr, align 8
  %13 = alloca i32, align 4
  store ptr %0, ptr %6, align 8, !tbaa !6
  store i32 %1, ptr %7, align 4, !tbaa !11
  store ptr %2, ptr %8, align 8, !tbaa !6
  store i32 %3, ptr %9, align 4, !tbaa !11
  call void @llvm.lifetime.start.p0(i64 4, ptr %10) #9
  call void @llvm.lifetime.start.p0(i64 4, ptr %11) #9
  call void @llvm.lifetime.start.p0(i64 8, ptr %12) #9
  %14 = load i32, ptr %9, align 4, !tbaa !11
  %15 = icmp ult i32 %14, 2
  br i1 %15, label %16, label %17

16:                                               ; preds = %4
  call void @ERR_put_error(i32 noundef 4, i32 noundef 0, i32 noundef 116, ptr noundef @.str, i32 noundef 108)
  store i32 -1, ptr %5, align 4
  store i32 1, ptr %13, align 4
  br label %83

17:                                               ; preds = %4
  %18 = load ptr, ptr %8, align 8, !tbaa !6
  store ptr %18, ptr %12, align 8, !tbaa !6
  %19 = load ptr, ptr %12, align 8, !tbaa !6
  %20 = getelementptr inbounds nuw i8, ptr %19, i32 1
  store ptr %20, ptr %12, align 8, !tbaa !6
  %21 = load i8, ptr %19, align 1, !tbaa !13
  %22 = zext i8 %21 to i32
  %23 = icmp ne i32 %22, 0
  br i1 %23, label %30, label %24

24:                                               ; preds = %17
  %25 = load ptr, ptr %12, align 8, !tbaa !6
  %26 = getelementptr inbounds nuw i8, ptr %25, i32 1
  store ptr %26, ptr %12, align 8, !tbaa !6
  %27 = load i8, ptr %25, align 1, !tbaa !13
  %28 = zext i8 %27 to i32
  %29 = icmp ne i32 %28, 1
  br i1 %29, label %30, label %31

30:                                               ; preds = %24, %17
  call void @ERR_put_error(i32 noundef 4, i32 noundef 0, i32 noundef 107, ptr noundef @.str, i32 noundef 114)
  store i32 -1, ptr %5, align 4
  store i32 1, ptr %13, align 4
  br label %83

31:                                               ; preds = %24
  %32 = load i32, ptr %9, align 4, !tbaa !11
  %33 = sub i32 %32, 2
  store i32 %33, ptr %11, align 4, !tbaa !11
  store i32 0, ptr %10, align 4, !tbaa !11
  br label %34

34:                                               ; preds = %55, %31
  %35 = load i32, ptr %10, align 4, !tbaa !11
  %36 = load i32, ptr %11, align 4, !tbaa !11
  %37 = icmp ult i32 %35, %36
  br i1 %37, label %38, label %58

38:                                               ; preds = %34
  %39 = load ptr, ptr %12, align 8, !tbaa !6
  %40 = load i8, ptr %39, align 1, !tbaa !13
  %41 = zext i8 %40 to i32
  %42 = icmp ne i32 %41, 255
  br i1 %42, label %43, label %52

43:                                               ; preds = %38
  %44 = load ptr, ptr %12, align 8, !tbaa !6
  %45 = load i8, ptr %44, align 1, !tbaa !13
  %46 = zext i8 %45 to i32
  %47 = icmp eq i32 %46, 0
  br i1 %47, label %48, label %51

48:                                               ; preds = %43
  %49 = load ptr, ptr %12, align 8, !tbaa !6
  %50 = getelementptr inbounds nuw i8, ptr %49, i32 1
  store ptr %50, ptr %12, align 8, !tbaa !6
  br label %58

51:                                               ; preds = %43
  call void @ERR_put_error(i32 noundef 4, i32 noundef 0, i32 noundef 102, ptr noundef @.str, i32 noundef 127)
  store i32 -1, ptr %5, align 4
  store i32 1, ptr %13, align 4
  br label %83

52:                                               ; preds = %38
  %53 = load ptr, ptr %12, align 8, !tbaa !6
  %54 = getelementptr inbounds nuw i8, ptr %53, i32 1
  store ptr %54, ptr %12, align 8, !tbaa !6
  br label %55

55:                                               ; preds = %52
  %56 = load i32, ptr %10, align 4, !tbaa !11
  %57 = add i32 %56, 1
  store i32 %57, ptr %10, align 4, !tbaa !11
  br label %34, !llvm.loop !14

58:                                               ; preds = %48, %34
  %59 = load i32, ptr %10, align 4, !tbaa !11
  %60 = load i32, ptr %11, align 4, !tbaa !11
  %61 = icmp eq i32 %59, %60
  br i1 %61, label %62, label %63

62:                                               ; preds = %58
  call void @ERR_put_error(i32 noundef 4, i32 noundef 0, i32 noundef 131, ptr noundef @.str, i32 noundef 135)
  store i32 -1, ptr %5, align 4
  store i32 1, ptr %13, align 4
  br label %83

63:                                               ; preds = %58
  %64 = load i32, ptr %10, align 4, !tbaa !11
  %65 = icmp ult i32 %64, 8
  br i1 %65, label %66, label %67

66:                                               ; preds = %63
  call void @ERR_put_error(i32 noundef 4, i32 noundef 0, i32 noundef 103, ptr noundef @.str, i32 noundef 140)
  store i32 -1, ptr %5, align 4
  store i32 1, ptr %13, align 4
  br label %83

67:                                               ; preds = %63
  %68 = load i32, ptr %10, align 4, !tbaa !11
  %69 = add i32 %68, 1
  store i32 %69, ptr %10, align 4, !tbaa !11
  %70 = load i32, ptr %10, align 4, !tbaa !11
  %71 = load i32, ptr %11, align 4, !tbaa !11
  %72 = sub i32 %71, %70
  store i32 %72, ptr %11, align 4, !tbaa !11
  %73 = load i32, ptr %11, align 4, !tbaa !11
  %74 = load i32, ptr %7, align 4, !tbaa !11
  %75 = icmp ugt i32 %73, %74
  br i1 %75, label %76, label %77

76:                                               ; preds = %67
  call void @ERR_put_error(i32 noundef 4, i32 noundef 0, i32 noundef 113, ptr noundef @.str, i32 noundef 146)
  store i32 -1, ptr %5, align 4
  store i32 1, ptr %13, align 4
  br label %83

77:                                               ; preds = %67
  %78 = load ptr, ptr %6, align 8, !tbaa !6
  %79 = load ptr, ptr %12, align 8, !tbaa !6
  %80 = load i32, ptr %11, align 4, !tbaa !11
  %81 = zext i32 %80 to i64
  call void @llvm.memcpy.p0.p0.i64(ptr align 1 %78, ptr align 1 %79, i64 %81, i1 false)
  %82 = load i32, ptr %11, align 4, !tbaa !11
  store i32 %82, ptr %5, align 4
  store i32 1, ptr %13, align 4
  br label %83

83:                                               ; preds = %77, %76, %66, %62, %51, %30, %16
  call void @llvm.lifetime.end.p0(i64 8, ptr %12) #9
  call void @llvm.lifetime.end.p0(i64 4, ptr %11) #9
  call void @llvm.lifetime.end.p0(i64 4, ptr %10) #9
  %84 = load i32, ptr %5, align 4
  ret i32 %84
}