; Function Attrs: nounwind uwtable
define hidden i32 @RSA_padding_check_PKCS1_type_1(ptr noundef writeonly captures(none) %0, i32 noundef %1, ptr noundef readonly captures(none) %2, i32 noundef %3) local_unnamed_addr #0 {
  %5 = icmp ult i32 %3, 2
  br i1 %5, label %6, label %7

6:                                                ; preds = %4
  tail call void @ERR_put_error(i32 noundef 4, i32 noundef 0, i32 noundef 116, ptr noundef nonnull @.str, i32 noundef 108) #8
  br label %32

7:                                                ; preds = %4
  %8 = load i8, ptr %2, align 1, !tbaa !6
  %.not = icmp eq i8 %8, 0
  br i1 %.not, label %9, label %12

9:                                                ; preds = %7
  %10 = getelementptr inbounds nuw i8, ptr %2, i64 1
  %11 = load i8, ptr %10, align 1, !tbaa !6
  %.not30 = icmp eq i8 %11, 1
  br i1 %.not30, label %13, label %12

12:                                               ; preds = %9, %7
  tail call void @ERR_put_error(i32 noundef 4, i32 noundef 0, i32 noundef 107, ptr noundef nonnull @.str, i32 noundef 114) #8
  br label %32

13:                                               ; preds = %9
  %14 = add i32 %3, -2
  %.not40 = icmp eq i32 %14, 0
  br i1 %.not40, label %.loopexit.thread, label %.lr.ph.preheader

.lr.ph.preheader:                                 ; preds = %13
  %15 = getelementptr inbounds nuw i8, ptr %2, i64 2
  br label %.lr.ph

.lr.ph:                                           ; preds = %.lr.ph.preheader, %18
  %.038 = phi ptr [ %19, %18 ], [ %15, %.lr.ph.preheader ]
  %.02437 = phi i32 [ %20, %18 ], [ 0, %.lr.ph.preheader ]
  %16 = load i8, ptr %.038, align 1, !tbaa !6
  switch i8 %16, label %17 [
    i8 -1, label %18
    i8 0, label %.loopexit
  ]

17:                                               ; preds = %.lr.ph
  tail call void @ERR_put_error(i32 noundef 4, i32 noundef 0, i32 noundef 102, ptr noundef nonnull @.str, i32 noundef 127) #8
  br label %32

18:                                               ; preds = %.lr.ph
  %19 = getelementptr inbounds nuw i8, ptr %.038, i64 1
  %20 = add nuw i32 %.02437, 1
  %exitcond.not = icmp eq i32 %20, %14
  br i1 %exitcond.not, label %.loopexit.thread, label %.lr.ph, !llvm.loop !9

.loopexit:                                        ; preds = %.lr.ph
  %21 = getelementptr inbounds nuw i8, ptr %.038, i64 1
  %22 = icmp eq i32 %.02437, %14
  br i1 %22, label %.loopexit.thread, label %23

.loopexit.thread:                                 ; preds = %18, %13, %.loopexit
  tail call void @ERR_put_error(i32 noundef 4, i32 noundef 0, i32 noundef 131, ptr noundef nonnull @.str, i32 noundef 135) #8
  br label %32

23:                                               ; preds = %.loopexit
  %24 = icmp ult i32 %.02437, 8
  br i1 %24, label %25, label %26

25:                                               ; preds = %23
  tail call void @ERR_put_error(i32 noundef 4, i32 noundef 0, i32 noundef 103, ptr noundef nonnull @.str, i32 noundef 140) #8
  br label %32

26:                                               ; preds = %23
  %.neg = xor i32 %.02437, -1
  %27 = add i32 %14, %.neg
  %28 = icmp ugt i32 %27, %1
  br i1 %28, label %29, label %30

29:                                               ; preds = %26
  tail call void @ERR_put_error(i32 noundef 4, i32 noundef 0, i32 noundef 113, ptr noundef nonnull @.str, i32 noundef 146) #8
  br label %32

30:                                               ; preds = %26
  %31 = zext i32 %27 to i64
  tail call void @llvm.memcpy.p0.p0.i64(ptr align 1 %0, ptr nonnull align 1 %21, i64 %31, i1 false)
  br label %32

32:                                               ; preds = %30, %29, %25, %.loopexit.thread, %17, %12, %6
  %.025 = phi i32 [ -1, %6 ], [ -1, %12 ], [ -1, %.loopexit.thread ], [ -1, %25 ], [ -1, %29 ], [ %27, %30 ], [ -1, %17 ]
  ret i32 %.025
}